target datalayout = "e-m:e-p270:32:32-p271:32:32-p272:64:64-i64:64-i128:128-f80:128-n8:16:32:64-S128"
target triple = "x86_64-pc-linux-gnu"

%struct.Test2 = type { [16 x i8] }

; Function Attrs: nounwind uwtable
define i32 @_testfunc_array_in_struct2(i64 %0, i64 %1) #0 {
  %3 = alloca %struct.Test2, align 1
  %4 = alloca i32, align 4
  %5 = alloca i32, align 4
  %6 = getelementptr inbounds nuw { i64, i64 }, ptr %3, i32 0, i32 0
  store i64 %0, ptr %6, align 1
  %7 = getelementptr inbounds nuw { i64, i64 }, ptr %3, i32 0, i32 1
  store i64 %1, ptr %7, align 1
  call void @llvm.lifetime.start.p0(i64 4, ptr %4) #12
  store i32 0, ptr %4, align 4, !tbaa !3
  call void @llvm.lifetime.start.p0(i64 4, ptr %5) #12
  store i32 0, ptr %5, align 4, !tbaa !3
  br label %8

8:                                                ; preds = %22, %2
  %9 = load i32, ptr %5, align 4, !tbaa !3
  %10 = zext i32 %9 to i64
  %11 = icmp ult i64 %10, 16
  br i1 %11, label %13, label %12

12:                                               ; preds = %8
  call void @llvm.lifetime.end.p0(i64 4, ptr %5) #12
  br label %25

13:                                               ; preds = %8
  %14 = getelementptr inbounds nuw %struct.Test2, ptr %3, i32 0, i32 0
  %15 = load i32, ptr %5, align 4, !tbaa !3
  %16 = zext i32 %15 to i64
  %17 = getelementptr [16 x i8], ptr %14, i64 0, i64 %16
  %18 = load i8, ptr %17, align 1, !tbaa !20
  %19 = zext i8 %18 to i32
  %20 = load i32, ptr %4, align 4, !tbaa !3
  %21 = add i32 %20, %19
  store i32 %21, ptr %4, align 4, !tbaa !3
  br label %22

22:                                               ; preds = %13
  %23 = load i32, ptr %5, align 4, !tbaa !3
  %24 = add i32 %23, 1
  store i32 %24, ptr %5, align 4, !tbaa !3
  br label %8, !llvm.loop !21

25:                                               ; preds = %12
  %26 = getelementptr inbounds nuw %struct.Test2, ptr %3, i32 0, i32 0
  %27 = getelementptr inbounds [16 x i8], ptr %26, i64 0, i64 0
  call void @llvm.memset.p0.i64(ptr align 1 %27, i8 0, i64 16, i1 false)
  %28 = load i32, ptr %4, align 4, !tbaa !3
  call void @llvm.lifetime.end.p0(i64 4, ptr %4) #12
  ret i32 %28
}