; Function Attrs: nofree norecurse nosync nounwind memory(none) uwtable
define i32 @_testfunc_array_in_struct2(i64 %0, i64 %1) local_unnamed_addr #4 {
  %3 = alloca %struct.Test2, align 8
  store i64 %0, ptr %3, align 8
  %4 = getelementptr inbounds nuw i8, ptr %3, i64 8
  store i64 %1, ptr %4, align 8
  br label %6

5:                                                ; preds = %6
  ret i32 %10

6:                                                ; preds = %2, %6
  %indvars.iv = phi i64 [ 0, %2 ], [ %indvars.iv.next, %6 ]
  %.057 = phi i32 [ 0, %2 ], [ %10, %6 ]
  %7 = getelementptr [16 x i8], ptr %3, i64 0, i64 %indvars.iv
  %8 = load i8, ptr %7, align 1, !tbaa !15
  %9 = zext i8 %8 to i32
  %10 = add i32 %.057, %9
  %indvars.iv.next = add nuw nsw i64 %indvars.iv, 1
  %exitcond.not = icmp eq i64 %indvars.iv.next, 16
  br i1 %exitcond.not, label %5, label %6, !llvm.loop !16
}